target datalayout = "e-m:e-p270:32:32-p271:32:32-p272:64:64-i64:64-i128:128-f80:128-n8:16:32:64-S128"
target triple = "x86_64-pc-linux-gnu"

; Function Attrs: mustprogress nounwind uwtable
define internal void @_ZL16tMPI_C_BOOL_landPvPKvS1_i(ptr noundef %0, ptr noundef %1, ptr noundef %2, i32 noundef %3) #0 {
  %5 = alloca ptr, align 8
  %6 = alloca ptr, align 8
  %7 = alloca ptr, align 8
  %8 = alloca i32, align 4
  %9 = alloca ptr, align 8
  %10 = alloca ptr, align 8
  %11 = alloca ptr, align 8
  %12 = alloca i32, align 4
  store ptr %0, ptr %5, align 8, !tbaa !3
  store ptr %1, ptr %6, align 8, !tbaa !3
  store ptr %2, ptr %7, align 8, !tbaa !3
  store i32 %3, ptr %8, align 4, !tbaa !7
  call void @llvm.lifetime.start.p0(i64 8, ptr %9) #6
  %13 = load ptr, ptr %6, align 8, !tbaa !3
  store ptr %13, ptr %9, align 8, !tbaa !9
  call void @llvm.lifetime.start.p0(i64 8, ptr %10) #6
  %14 = load ptr, ptr %7, align 8, !tbaa !3
  store ptr %14, ptr %10, align 8, !tbaa !9
  call void @llvm.lifetime.start.p0(i64 8, ptr %11) #6
  %15 = load ptr, ptr %5, align 8, !tbaa !3
  store ptr %15, ptr %11, align 8, !tbaa !9
  call void @llvm.lifetime.start.p0(i64 4, ptr %12) #6
  store i32 0, ptr %12, align 4, !tbaa !7
  br label %16

16:                                               ; preds = %41, %4
  %17 = load i32, ptr %12, align 4, !tbaa !7
  %18 = load i32, ptr %8, align 4, !tbaa !7
  %19 = icmp slt i32 %17, %18
  br i1 %19, label %20, label %44

20:                                               ; preds = %16
  %21 = load ptr, ptr %9, align 8, !tbaa !9
  %22 = load i32, ptr %12, align 4, !tbaa !7
  %23 = sext i32 %22 to i64
  %24 = getelementptr inbounds i8, ptr %21, i64 %23
  %25 = load i8, ptr %24, align 1, !tbaa !11, !range !13, !noundef !14
  %26 = trunc i8 %25 to i1
  br i1 %26, label %27, label %34

27:                                               ; preds = %20
  %28 = load ptr, ptr %10, align 8, !tbaa !9
  %29 = load i32, ptr %12, align 4, !tbaa !7
  %30 = sext i32 %29 to i64
  %31 = getelementptr inbounds i8, ptr %28, i64 %30
  %32 = load i8, ptr %31, align 1, !tbaa !11, !range !13, !noundef !14
  %33 = trunc i8 %32 to i1
  br label %34

34:                                               ; preds = %27, %20
  %35 = phi i1 [ false, %20 ], [ %33, %27 ]
  %36 = load ptr, ptr %11, align 8, !tbaa !9
  %37 = load i32, ptr %12, align 4, !tbaa !7
  %38 = sext i32 %37 to i64
  %39 = getelementptr inbounds i8, ptr %36, i64 %38
  %40 = zext i1 %35 to i8
  store i8 %40, ptr %39, align 1, !tbaa !11
  br label %41

41:                                               ; preds = %34
  %42 = load i32, ptr %12, align 4, !tbaa !7
  %43 = add nsw i32 %42, 1
  store i32 %43, ptr %12, align 4, !tbaa !7
  br label %16, !llvm.loop !15

44:                                               ; preds = %16
  call void @llvm.lifetime.end.p0(i64 4, ptr %12) #6
  call void @llvm.lifetime.end.p0(i64 8, ptr %11) #6
  call void @llvm.lifetime.end.p0(i64 8, ptr %10) #6
  call void @llvm.lifetime.end.p0(i64 8, ptr %9) #6
  ret void
}