; Function Attrs: mustprogress nofree norecurse nosync nounwind memory(argmem: readwrite) uwtable
define internal void @_ZL16tMPI_C_BOOL_landPvPKvS1_i(ptr noundef writeonly captures(none) %0, ptr noundef readonly captures(none) %1, ptr noundef readonly captures(none) %2, i32 noundef %3) #0 {
  %5 = icmp sgt i32 %3, 0
  br i1 %5, label %.lr.ph.preheader, label %._crit_edge

.lr.ph.preheader:                                 ; preds = %4
  %wide.trip.count = zext nneg i32 %3 to i64
  br label %.lr.ph

.lr.ph:                                           ; preds = %.lr.ph.preheader, %12
  %indvars.iv = phi i64 [ 0, %.lr.ph.preheader ], [ %indvars.iv.next, %12 ]
  %6 = getelementptr inbounds nuw i8, ptr %1, i64 %indvars.iv
  %7 = load i8, ptr %6, align 1, !tbaa !3, !range !7, !noundef !8
  %8 = trunc nuw i8 %7 to i1
  br i1 %8, label %9, label %12

9:                                                ; preds = %.lr.ph
  %10 = getelementptr inbounds nuw i8, ptr %2, i64 %indvars.iv
  %11 = load i8, ptr %10, align 1, !tbaa !3, !range !7, !noundef !8
  br label %12

12:                                               ; preds = %9, %.lr.ph
  %13 = phi i8 [ 0, %.lr.ph ], [ %11, %9 ]
  %14 = getelementptr inbounds nuw i8, ptr %0, i64 %indvars.iv
  store i8 %13, ptr %14, align 1, !tbaa !3
  %indvars.iv.next = add nuw nsw i64 %indvars.iv, 1
  %exitcond.not = icmp eq i64 %indvars.iv.next, %wide.trip.count
  br i1 %exitcond.not, label %._crit_edge, label %.lr.ph, !llvm.loop !9

._crit_edge:                                      ; preds = %12, %4
  ret void
}